((lp0
F1655319458.459214
aF1655319458.460455
aF1655319458.461813
aF1655319458.463196
aF1655319458.464486
aF1655319458.465761
aF1655319458.467107
aF1655319458.46836
aF1655319458.471044
aF1655319458.472624
aF1655319458.477453
aF1655319458.4788
aF1655319458.479838
aF1655319458.484635
aF1655319458.485783
aF1655319458.486963
aF1655319458.488412
aF1655319458.49728
aF1655319458.503128
aF1655319458.506267
aF1655319458.507903
aF1655319458.509471
aF1655319458.510812
aF1655319458.51211
aF1655319458.513291
aF1655319458.515006
aF1655319458.516727
aF1655319458.518862
aF1655319458.520193
aF1655319458.521798
aF1655319458.523083
aF1655319458.524285
aF1655319458.525963
aF1655319458.527037
aF1655319458.528159
aF1655319458.529174
aF1655319458.530144
aF1655319458.531256
aF1655319458.532269
aF1655319458.533319
aF1655319458.534316
aF1655319458.535262
aF1655319458.536212
aF1655319458.537261
aF1655319458.538708
aF1655319458.539971
aF1655319458.541212
aF1655319458.54246
aF1655319458.543597
aF1655319458.544626
aF1655319458.545623
aF1655319458.546606
aF1655319458.547694
aF1655319458.548955
aF1655319458.550135
aF1655319458.5513
aF1655319458.552363
aF1655319458.553408
aF1655319458.554465
aF1655319458.555451
aF1655319458.556496
aF1655319458.557704
aF1655319458.559118
aF1655319458.56095
aF1655319458.562275
aF1655319458.564175
aF1655319458.566183
aF1655319458.568208
aF1655319458.570149
aF1655319458.572543
aF1655319458.574462
aF1655319458.577864
aF1655319458.5795
aF1655319458.587892
aF1655319458.589509
aF1655319458.591047
aF1655319458.593124
aF1655319458.598685
aF1655319458.599993
aF1655319458.60135
aF1655319458.602541
aF1655319458.603752
aF1655319458.605045
aF1655319458.606394
aF1655319458.607437
aF1655319458.608828
aF1655319458.610209
aF1655319458.611431
aF1655319458.612498
aF1655319458.613618
aF1655319458.61468
aF1655319458.615642
aF1655319458.616624
aF1655319458.617589
aF1655319458.618902
aF1655319458.620108
aF1655319458.621292
aF1655319458.622504
aF1655319458.623672
aF1655319458.624779
aF1655319458.626027
aF1655319458.627014
aF1655319458.627958
aF1655319458.628914
aF1655319458.630015
aF1655319458.631627
aF1655319458.633888
aF1655319458.635385
aF1655319458.636962
aF1655319458.638726
aF1655319458.641519
aF1655319458.646443
aF1655319458.648336
aF1655319458.650103
aF1655319458.651707
aF1655319458.65318
aF1655319458.654895
aF1655319458.656614
aF1655319458.65913
aF1655319458.660505
aF1655319458.661856
aF1655319458.663157
aF1655319458.664593
aF1655319458.665908
aF1655319458.667122
aF1655319458.668309
aF1655319458.669738
aF1655319458.671233
aF1655319458.672824
aF1655319458.674178
aF1655319458.675789
aF1655319458.677112
aF1655319458.678357
aF1655319458.679389
aF1655319458.680609
aF1655319458.681902
aF1655319458.683031
aF1655319458.684138
aF1655319458.685589
aF1655319458.686815
aF1655319458.688053
aF1655319458.689221
aF1655319458.690378
aF1655319458.691464
aF1655319458.692561
aF1655319458.693772
aF1655319458.694992
aF1655319458.69624
aF1655319458.697566
aF1655319458.700559
aF1655319458.703416
aF1655319458.705815
aF1655319458.707592
aF1655319458.709843
aF1655319458.711417
aF1655319458.712967
aF1655319458.714578
aF1655319458.715808
aF1655319458.717346
aF1655319458.718766
aF1655319458.720165
aF1655319458.721763
aF1655319458.7256
aF1655319458.726715
aF1655319458.7277
aF1655319458.728675
aF1655319458.729656
aF1655319458.731222
aF1655319458.736265
aF1655319458.749658
aF1655319458.750954
aF1655319458.752416
aF1655319458.753698
aF1655319458.761393
aF1655319458.76442
aF1655319458.765982
aF1655319458.767717
aF1655319458.769459
aF1655319458.771311
aF1655319458.773736
aF1655319458.776406
aF1655319458.778104
aF1655319458.779812
aF1655319458.78142
aF1655319458.782909
aF1655319458.784317
aF1655319458.785872
aF1655319458.787249
aF1655319458.788633
aF1655319458.797532
aF1655319458.798991
aF1655319458.800254
aF1655319458.801683
aF1655319458.803005
aF1655319458.804261
aF1655319458.805722
aF1655319458.807132
aF1655319458.808645
aF1655319458.809843
aF1655319458.811066
aF1655319458.812187
aF1655319458.813278
aF1655319458.814383
aF1655319458.815498
aF1655319458.816784
aF1655319458.818132
aF1655319458.81938
aF1655319458.820532
aF1655319458.821702
aF1655319458.822756
aF1655319458.823852
aF1655319458.825146
aF1655319458.826386
aF1655319458.827805
aF1655319458.829306
aF1655319458.830769
aF1655319458.832566
aF1655319458.835059
aF1655319458.841007
aF1655319458.846224
aF1655319458.847799
aF1655319458.849267
aF1655319458.860998
aF1655319458.86217
aF1655319458.863203
aF1655319458.864187
aF1655319458.869479
aF1655319458.871709
aF1655319458.873508
aF1655319458.87666
aF1655319458.877954
aF1655319458.878939
aF1655319458.879862
aF1655319458.880787
aF1655319458.881694
aF1655319458.882871
aF1655319458.883856
aF1655319458.885237
aF1655319458.886676
aF1655319458.887967
aF1655319458.889225
aF1655319458.890423
aF1655319458.892462
aF1655319458.894099
aF1655319458.895751
aF1655319458.897634
aF1655319458.899952
aF1655319458.902645
aF1655319458.904893
aF1655319458.90642
aF1655319458.908366
aF1655319458.909799
aF1655319458.910974
aF1655319458.912124
aF1655319458.913394
aF1655319458.914632
aF1655319458.915828
aF1655319458.917333
aF1655319458.918688
aF1655319458.920115
aF1655319458.921656
aF1655319458.922952
aF1655319458.924092
aF1655319458.925696
aF1655319458.92687
aF1655319458.927863
aF1655319458.928986
aF1655319458.929998
aF1655319458.931075
aF1655319458.932056
aF1655319458.933099
aF1655319458.93431
aF1655319458.935337
aF1655319458.936326
aF1655319458.937405
aF1655319458.938998
aF1655319458.940247
aF1655319458.941537
aF1655319458.942616
aF1655319458.943632
aF1655319458.944622
aF1655319458.945624
aF1655319458.946753
aF1655319458.947943
aF1655319458.9493
aF1655319458.950738
aF1655319458.959302
aF1655319458.960801
aF1655319458.96813
aF1655319458.970528
aF1655319458.97302
aF1655319458.977874
aF1655319458.979632
aF1655319458.981141
aF1655319458.9828
aF1655319458.984295
aF1655319458.98586
aF1655319458.987517
aF1655319458.989296
aF1655319458.990875
aF1655319458.992209
aF1655319458.993537
aF1655319458.994714
aF1655319458.995905
aF1655319458.997099
aF1655319458.998786
aF1655319459.000411
aF1655319459.002331
aF1655319459.003759
aF1655319459.00552
aF1655319459.006954
aF1655319459.008269
aF1655319459.009924
aF1655319459.011321
aF1655319459.012639
aF1655319459.013783
aF1655319459.014824
aF1655319459.015827
aF1655319459.017007
aF1655319459.018147
aF1655319459.019216
aF1655319459.02028
aF1655319459.021709
aF1655319459.022899
aF1655319459.024167
aF1655319459.026433
aF1655319459.02821
aF1655319459.033911
aF1655319459.035433
aF1655319459.036927
aF1655319459.038625
aF1655319459.040131
aF1655319459.041756
aF1655319459.043369
aF1655319459.044861
aF1655319459.046358
aF1655319459.047851
aF1655319459.049613
aF1655319459.051319
aF1655319459.053075
aF1655319459.057623
aF1655319459.059459
aF1655319459.06065
aF1655319459.061915
aF1655319459.063032
aF1655319459.064075
aF1655319459.065182
aF1655319459.066373
aF1655319459.067611
aF1655319459.068862
aF1655319459.070071
aF1655319459.071498
aF1655319459.073196
aF1655319459.074619
aF1655319459.076167
aF1655319459.077537
aF1655319459.078923
aF1655319459.080228
aF1655319459.081764
aF1655319459.083248
aF1655319459.084615
aF1655319459.085896
aF1655319459.087091
aF1655319459.088343
aF1655319459.089921
aF1655319459.091193
aF1655319459.093678
aF1655319459.127263
aF1655319459.128619
aF1655319459.129747
aF1655319459.131
aF1655319459.132402
aF1655319459.133656
aF1655319459.134899
aF1655319459.1362
aF1655319459.137425
aF1655319459.138953
aF1655319459.140486
aF1655319459.142278
aF1655319459.143863
aF1655319459.145311
aF1655319459.151906
aF1655319459.153203
aF1655319459.158698
aF1655319459.159867
aF1655319459.1614
aF1655319459.163454
aF1655319459.170269
aF1655319459.172258
aF1655319459.17406
aF1655319459.18814
aF1655319459.190286
aF1655319459.191657
aF1655319459.192892
aF1655319459.194184
aF1655319459.202495
aF1655319459.20589
aF1655319459.209084
aF1655319459.214228
aF1655319459.217406
aF1655319459.218611
aF1655319459.219669
aF1655319459.22069
aF1655319459.221715
aF1655319459.222765
aF1655319459.223808
aF1655319459.224897
aF1655319459.2266
aF1655319459.22805
aF1655319459.230033
aF1655319459.239943
aF1655319459.242553
aF1655319459.246153
aF1655319459.255407
aF1655319459.257757
aF1655319459.260706
aF1655319459.265461
aF1655319459.271629
aF1655319459.272885
aF1655319459.274049
aF1655319459.27552
aF1655319459.276742
aF1655319459.277895
aF1655319459.279154
aF1655319459.280413
aF1655319459.281633
aF1655319459.282729
aF1655319459.283961
aF1655319459.285353
aF1655319459.288433
aF1655319459.289755
aF1655319459.297367
aF1655319459.299487
aF1655319459.321067
aF1655319459.326685
aF1655319459.331323
aF1655319459.332452
aF1655319459.333509
aF1655319459.334487
aF1655319459.335459
aF1655319459.336404
aF1655319459.338144
aF1655319459.339451
aF1655319459.340957
aF1655319459.343724
aF1655319459.346757
aF1655319459.348595
aF1655319459.349637
aF1655319459.359108
aF1655319459.361616
aF1655319459.363203
aF1655319459.364723
aF1655319459.366797
aF1655319459.380822
aF1655319459.382559
aF1655319459.384182
aF1655319459.385684
aF1655319459.387354
aF1655319459.38894
aF1655319459.390448
aF1655319459.392765
aF1655319459.394161
aF1655319459.395477
aF1655319459.396834
aF1655319459.398243
aF1655319459.399637
aF1655319459.400941
aF1655319459.402253
aF1655319459.40356
aF1655319459.40502
aF1655319459.406295
aF1655319459.407456
aF1655319459.408623
aF1655319459.409722
aF1655319459.410883
aF1655319459.411994
aF1655319459.413281
aF1655319459.414391
aF1655319459.41543
aF1655319459.416574
aF1655319459.417768
aF1655319459.418837
aF1655319459.419855
aF1655319459.420958
aF1655319459.422003
aF1655319459.423031
aF1655319459.424335
aF1655319459.426533
aF1655319459.428362
aF1655319459.43056
aF1655319459.433534
aF1655319459.440607
aF1655319459.442925
aF1655319459.444688
aF1655319459.445995
aF1655319459.447117
aF1655319459.448165
aF1655319459.44923
aF1655319459.450373
aF1655319459.451564
aF1655319459.452925
aF1655319459.454353
aF1655319459.455609
aF1655319459.456788
aF1655319459.457905
aF1655319459.459462
aF1655319459.460714
aF1655319459.461975
aF1655319459.463114
aF1655319459.464236
aF1655319459.465412
aF1655319459.46659
aF1655319459.467776
aF1655319459.468975
aF1655319459.472895
aF1655319459.474333
aF1655319459.475628
aF1655319459.477123
aF1655319459.478526
aF1655319459.479736
aF1655319459.4811
aF1655319459.482473
aF1655319459.483698
aF1655319459.484996
aF1655319459.486447
aF1655319459.487843
aF1655319459.489214
aF1655319459.490804
aF1655319459.492775
aF1655319459.494375
aF1655319459.529838
aF1655319459.531243
aF1655319459.537551
aF1655319459.539531
aF1655319459.540946
aF1655319459.542527
aF1655319459.543986
aF1655319459.54528
aF1655319459.546493
aF1655319459.547815
aF1655319459.549087
aF1655319459.553546
aF1655319459.554877
aF1655319459.556095
aF1655319459.557291
aF1655319459.567148
aF1655319459.569015
aF1655319459.587855
aF1655319459.589181
aF1655319459.590401
aF1655319459.591619
aF1655319459.592767
aF1655319459.594106
aF1655319459.59524
aF1655319459.60116
aF1655319459.603496
aF1655319459.606912
aF1655319459.608394
aF1655319459.609934
aF1655319459.613471
aF1655319459.614653
aF1655319459.615757
aF1655319459.617493
aF1655319459.625092
aF1655319459.627001
aF1655319459.628678
aF1655319459.63079
aF1655319459.633609
aF1655319459.635855
aF1655319459.638444
aF1655319459.646767
aF1655319459.648538
aF1655319459.650058
aF1655319459.651287
aF1655319459.652768
aF1655319459.654114
aF1655319459.655726
aF1655319459.657423
aF1655319459.659081
aF1655319459.660536
aF1655319459.661894
aF1655319459.663158
aF1655319459.664424
aF1655319459.665767
aF1655319459.667017
aF1655319459.668293
aF1655319459.669552
aF1655319459.670661
aF1655319459.672275
aF1655319459.674131
aF1655319459.675351
aF1655319459.676735
aF1655319459.677871
aF1655319459.679106
aF1655319459.680235
aF1655319459.681453
aF1655319459.682535
aF1655319459.683671
aF1655319459.684976
aF1655319459.686132
aF1655319459.687447
aF1655319459.694386
aF1655319459.695611
aF1655319459.698081
aF1655319459.72309
aF1655319459.724698
aF1655319459.726049
aF1655319459.727363
aF1655319459.728687
aF1655319459.730064
aF1655319459.731392
aF1655319459.732562
aF1655319459.733644
aF1655319459.73467
aF1655319459.73572
aF1655319459.736758
aF1655319459.737787
aF1655319459.739061
aF1655319459.740365
aF1655319459.741555
aF1655319459.743109
aF1655319459.74466
aF1655319459.745778
aF1655319459.746919
aF1655319459.748012
aF1655319459.749075
aF1655319459.750152
aF1655319459.751143
aF1655319459.752151
aF1655319459.753193
aF1655319459.754448
aF1655319459.75556
aF1655319459.756606
aF1655319459.765726
aF1655319459.76775
aF1655319459.770091
aF1655319459.77255
aF1655319459.774566
aF1655319459.778356
aF1655319459.780077
aF1655319459.782191
aF1655319459.793956
aF1655319459.795453
aF1655319459.796781
aF1655319459.798104
aF1655319459.799546
aF1655319459.800901
aF1655319459.802172
aF1655319459.803406
aF1655319459.804847
aF1655319459.806278
aF1655319459.807635
aF1655319459.809406
aF1655319459.810784
aF1655319459.812178
aF1655319459.813462
aF1655319459.814788
aF1655319459.816048
aF1655319459.817429
aF1655319459.818642
aF1655319459.819766
aF1655319459.820892
aF1655319459.822191
aF1655319459.823587
aF1655319459.824814
aF1655319459.825877
aF1655319459.826923
aF1655319459.827948
aF1655319459.828989
aF1655319459.830344
aF1655319459.832192
aF1655319459.834181
aF1655319459.836328
aF1655319459.838521
aF1655319459.840565
aF1655319459.849771
aF1655319459.851413
aF1655319459.852773
aF1655319459.854685
aF1655319459.856167
aF1655319459.857772
aF1655319459.859775
aF1655319459.861095
aF1655319459.862301
aF1655319459.863587
aF1655319459.864852
aF1655319459.865897
aF1655319459.866947
aF1655319459.867959
aF1655319459.86904
aF1655319459.870142
aF1655319459.871236
aF1655319459.872706
aF1655319459.873816
aF1655319459.87488
aF1655319459.875874
aF1655319459.877395
aF1655319459.878707
aF1655319459.880055
aF1655319459.881391
aF1655319459.88282
aF1655319459.88413
aF1655319459.885762
aF1655319459.887249
aF1655319459.888662
aF1655319459.889877
aF1655319459.891311
aF1655319459.893051
aF1655319459.894427
aF1655319459.895888
aF1655319459.897343
aF1655319459.898738
aF1655319459.900028
aF1655319459.901149
aF1655319459.902418
aF1655319459.903959
aF1655319459.905755
aF1655319459.907805
aF1655319459.910267
aF1655319459.911816
aF1655319459.925354
aF1655319459.927301
aF1655319459.929376
aF1655319459.930755
aF1655319459.932057
aF1655319459.933355
aF1655319459.934625
aF1655319459.935826
aF1655319459.93702
aF1655319459.938746
aF1655319459.940723
aF1655319459.942746
aF1655319459.943952
aF1655319459.945032
aF1655319459.946091
aF1655319459.947211
aF1655319459.948345
aF1655319459.949579
aF1655319459.950751
aF1655319459.951865
aF1655319459.952964
aF1655319459.95421
aF1655319459.955334
aF1655319459.95688
aF1655319459.958238
aF1655319459.959973
aF1655319459.961271
aF1655319459.96257
aF1655319459.963852
aF1655319459.965381
aF1655319459.967174
aF1655319459.969558
aF1655319459.971401
aF1655319459.973521
aF1655319459.975484
aF1655319459.977423
aF1655319459.979263
aF1655319459.980876
aF1655319459.982618
aF1655319459.984141
aF1655319459.985807
aF1655319459.987228
aF1655319459.988803
aF1655319459.99044
aF1655319459.992655
aF1655319459.99411
aF1655319459.995386
aF1655319459.996788
aF1655319459.99812
aF1655319459.999339
aF1655319460.000502
aF1655319460.001589
aF1655319460.002663
aF1655319460.003712
aF1655319460.004866
aF1655319460.006585
aF1655319460.007888
aF1655319460.009211
aF1655319460.010631
aF1655319460.011998
aF1655319460.01328
aF1655319460.014402
aF1655319460.015587
aF1655319460.016988
aF1655319460.018333
aF1655319460.019741
aF1655319460.021097
aF1655319460.022422
aF1655319460.02376
aF1655319460.025771
aF1655319460.027523
aF1655319460.029325
aF1655319460.032062
aF1655319460.034135
aF1655319460.03638
aF1655319460.040947
aF1655319460.045217
aF1655319460.046758
aF1655319460.048525
aF1655319460.05004
aF1655319460.051692
aF1655319460.053489
aF1655319460.055535
aF1655319460.057251
aF1655319460.059651
aF1655319460.06121
aF1655319460.062489
aF1655319460.063628
aF1655319460.065694
aF1655319460.067107
aF1655319460.068518
aF1655319460.069727
aF1655319460.07107
aF1655319460.072713
aF1655319460.074141
aF1655319460.075557
aF1655319460.076821
aF1655319460.077964
aF1655319460.07923
aF1655319460.08046
aF1655319460.081707
aF1655319460.082939
aF1655319460.084118
aF1655319460.085324
aF1655319460.086532
aF1655319460.087694
aF1655319460.088711
aF1655319460.089794
aF1655319460.090804
aF1655319460.091829
aF1655319460.092829
aF1655319460.09386
aF1655319460.094976
aF1655319460.096096
aF1655319460.097192
aF1655319460.098219
aF1655319460.099256
aF1655319460.100801
aF1655319460.110404
aF1655319460.114538
aF1655319460.117801
aF1655319460.119115
aF1655319460.120393
aF1655319460.122718
aF1655319460.12452
aF1655319460.126245
aF1655319460.127761
aF1655319460.129273
aF1655319460.130637
aF1655319460.13177
aF1655319460.132945
aF1655319460.13415
aF1655319460.135398
aF1655319460.136457
aF1655319460.137483
aF1655319460.138764
aF1655319460.140577
aF1655319460.142203
aF1655319460.143659
aF1655319460.144668
aF1655319460.145676
aF1655319460.14661
aF1655319460.147555
aF1655319460.148492
aF1655319460.149618
aF1655319460.150674
aF1655319460.151839
aF1655319460.153051
aF1655319460.154205
aF1655319460.155383
aF1655319460.156596
aF1655319460.157963
aF1655319460.159054
aF1655319460.160042
aF1655319460.161111
aF1655319460.16217
aF1655319460.163568
aF1655319460.164921
aF1655319460.166378
aF1655319460.168402
aF1655319460.170674
aF1655319460.173024
aF1655319460.175507
aF1655319460.178234
aF1655319460.185641
aF1655319460.187331
aF1655319460.189666
aF1655319460.191469
aF1655319460.19289
aF1655319460.195393
aF1655319460.197148
aF1655319460.198673
aF1655319460.199995
aF1655319460.201273
aF1655319460.202602
aF1655319460.203887
aF1655319460.205229
aF1655319460.206966
aF1655319460.209203
aF1655319460.210539
aF1655319460.211734
aF1655319460.212984
aF1655319460.214174
aF1655319460.215179
aF1655319460.21617
aF1655319460.21715
aF1655319460.218164
aF1655319460.219314
aF1655319460.220504
aF1655319460.221835
aF1655319460.222959
aF1655319460.223898
aF1655319460.225092
aF1655319460.226195
aF1655319460.227344
aF1655319460.228531
aF1655319460.229612
aF1655319460.230893
aF1655319460.231843
aF1655319460.232901
aF1655319460.23416
aF1655319460.235465
aF1655319460.236871
aF1655319460.242972
aF1655319460.245128
aF1655319460.248558
aF1655319460.251369
aF1655319460.253247
aF1655319460.254804
aF1655319460.256317
aF1655319460.265979
aF1655319460.267433
aF1655319460.27363
aF1655319460.275161
aF1655319460.276654
aF1655319460.278615
aF1655319460.279983
aF1655319460.281651
aF1655319460.283311
aF1655319460.28475
aF1655319460.286291
aF1655319460.287719
aF1655319460.28896
aF1655319460.290269
aF1655319460.291547
aF1655319460.293106
aF1655319460.294574
aF1655319460.296017
aF1655319460.297377
aF1655319460.298777
aF1655319460.300367
aF1655319460.302425
aF1655319460.304145
aF1655319460.305627
aF1655319460.307743
aF1655319460.313598
aF1655319460.3156
aF1655319460.317471
aF1655319460.319195
aF1655319460.321718
aF1655319460.323509
aF1655319460.326268
aF1655319460.327877
aF1655319460.329455
aF1655319460.33756
aF1655319460.339735
aF1655319460.347092
aF1655319460.351618
aF1655319460.354768
aF1655319460.356001
aF1655319460.366719
aF1655319460.36804
aF1655319460.505538
aF1655319460.50758
aF1655319460.509089
aF1655319460.510613
aF1655319460.516251
aF1655319460.517712
aF1655319460.518968
aF1655319460.52017
aF1655319460.521596
aF1655319460.522908
aF1655319460.524126
aF1655319460.525777
aF1655319460.527143
aF1655319460.528294
aF1655319460.529515
aF1655319460.530744
aF1655319460.531986
aF1655319460.533241
aF1655319460.534532
aF1655319460.535865
aF1655319460.537057
aF1655319460.538192
aF1655319460.540025
aF1655319460.541653
aF1655319460.543346
aF1655319460.544565
aF1655319460.545667
aF1655319460.546734
aF1655319460.547856
aF1655319460.549068
aF1655319460.550173
aF1655319460.551287
aF1655319460.552556
aF1655319460.553775
aF1655319460.566734
aF1655319460.573895
aF1655319460.576568
aF1655319460.588204
aF1655319460.590165
aF1655319460.591642
aF1655319460.597473
aF1655319460.599132
aF1655319460.60053
aF1655319460.601927
aF1655319460.603207
aF1655319460.604439
aF1655319460.605642
aF1655319460.607042
aF1655319460.608226
aF1655319460.609821
aF1655319460.611168
aF1655319460.612256
aF1655319460.613305
aF1655319460.614261
aF1655319460.615178
aF1655319460.616071
aF1655319460.616941
aF1655319460.617948
aF1655319460.619014
aF1655319460.620005
aF1655319460.621055
aF1655319460.622005
aF1655319460.622975
aF1655319460.623916
aF1655319460.624986
aF1655319460.626136
aF1655319460.635454
aF1655319460.638111
aF1655319460.640396
aF1655319460.643351
aF1655319460.645252
aF1655319460.647126
aF1655319460.648534
aF1655319460.650045
aF1655319460.651658
aF1655319460.65353
aF1655319460.659698
aF1655319460.665984
aF1655319460.667499
aF1655319460.669178
aF1655319460.67355
aF1655319460.684326
aF1655319460.685582
aF1655319460.69132
aF1655319460.692617
aF1655319460.696288
aF1655319460.701641
aF1655319460.703388
aF1655319460.705808
aF1655319460.708745
aF1655319460.711303
aF1655319460.713688
aF1655319460.715523
aF1655319460.717092
aF1655319460.718606
aF1655319460.720089
aF1655319460.721536
aF1655319460.725118
aF1655319460.726559
aF1655319460.727647
aF1655319460.728681
aF1655319460.729766
aF1655319460.730786
aF1655319460.732018
aF1655319460.733216
aF1655319460.73429
aF1655319460.735392
aF1655319460.736737
aF1655319460.737852
aF1655319460.739525
aF1655319460.743955
aF1655319460.745322
aF1655319460.746439
aF1655319460.747491
aF1655319460.748661
aF1655319460.749798
aF1655319460.750848
aF1655319460.751947
aF1655319460.753206
aF1655319460.754625
aF1655319460.765617
aF1655319460.79484
aF1655319460.802419
aF1655319460.805162
aF1655319460.810209
aF1655319460.816284
aF1655319460.82097
aF1655319460.822025
aF1655319460.823101
aF1655319460.824218
aF1655319460.825839
aF1655319460.827306
aF1655319460.828666
aF1655319460.829898
aF1655319460.831028
aF1655319460.832157
aF1655319460.833536
aF1655319460.837592
aF1655319460.83926
aF1655319460.841575
aF1655319460.843654
aF1655319460.845758
aF1655319460.865133
aF1655319460.866639
aF1655319460.867907
aF1655319460.869077
aF1655319460.870326
aF1655319460.871653
aF1655319460.87315
aF1655319460.874575
aF1655319460.875774
aF1655319460.877033
aF1655319460.878532
aF1655319460.881081
aF1655319460.882339
aF1655319460.883625
aF1655319460.884753
aF1655319460.889658
aF1655319460.890926
aF1655319460.898533
aF1655319460.900401
aF1655319460.903814
aF1655319460.905884
aF1655319460.907442
aF1655319460.91977
aF1655319460.921479
aF1655319460.923046
aF1655319460.92437
aF1655319460.926267
aF1655319460.927471
aF1655319460.928602
aF1655319460.929877
aF1655319460.930948
aF1655319460.931981
aF1655319460.933079
aF1655319460.934035
aF1655319460.935011
aF1655319460.935901
aF1655319460.936909
aF1655319460.937985
aF1655319460.939284
aF1655319460.941484
aF1655319460.943043
aF1655319460.944251
aF1655319460.945382
aF1655319460.946344
aF1655319460.947276
aF1655319460.948204
aF1655319460.949148
aF1655319460.950106
aF1655319460.951061
aF1655319460.952013
aF1655319460.953005
aF1655319460.954272
aF1655319460.955311
aF1655319460.956481
aF1655319460.957716
aF1655319460.959259
aF1655319460.960494
aF1655319460.961832
aF1655319460.963018
aF1655319460.964178
aF1655319460.965379
aF1655319460.966545
aF1655319460.967709
aF1655319460.968941
aF1655319460.970178
aF1655319460.971439
aF1655319460.972657
aF1655319460.974098
aF1655319460.978405
aF1655319460.980776
aF1655319460.98304
aF1655319460.985338
aF1655319460.988066
aF1655319460.993942
aF1655319460.995406
aF1655319460.996782
aF1655319460.998303
aF1655319460.999582
aF1655319461.000874
aF1655319461.0032
aF1655319461.004851
aF1655319461.006836
aF1655319461.009873
aF1655319461.011307
aF1655319461.012635
aF1655319461.013889
aF1655319461.01514
aF1655319461.016376
aF1655319461.017726
aF1655319461.018976
aF1655319461.020356
aF1655319461.021671
aF1655319461.02289
aF1655319461.024131
aF1655319461.025535
aF1655319461.026826
aF1655319461.028107
aF1655319461.02933
aF1655319461.030452
aF1655319461.031606
aF1655319461.032976
aF1655319461.034382
aF1655319461.036063
aF1655319461.038376
aF1655319461.040282
aF1655319461.042426
aF1655319461.045026
aF1655319461.048078
aF1655319461.049905
aF1655319461.051774
aF1655319461.057871
aF1655319461.060019
aF1655319461.061847
aF1655319461.067518
aF1655319461.08352
aF1655319461.084826
aF1655319461.086154
aF1655319461.087508
aF1655319461.089192
aF1655319461.090502
aF1655319461.091738
aF1655319461.093043
aF1655319461.094433
aF1655319461.095782
aF1655319461.097004
aF1655319461.098504
aF1655319461.102104
aF1655319461.105931
aF1655319461.131464
aF1655319461.132785
aF1655319461.134022
aF1655319461.135179
aF1655319461.136354
aF1655319461.137533
aF1655319461.138799
aF1655319461.141008
aF1655319461.144687
aF1655319461.145982
aF1655319461.147196
aF1655319461.14851
aF1655319461.149723
aF1655319461.150867
aF1655319461.152165
aF1655319461.153469
aF1655319461.154839
aF1655319461.156118
aF1655319461.157362
aF1655319461.158817
aF1655319461.160355
aF1655319461.165645
aF1655319461.167209
aF1655319461.168742
aF1655319461.170258
aF1655319461.172487
aF1655319461.1739
aF1655319461.176322
aF1655319461.181175
aF1655319461.183341
aF1655319461.185226
aF1655319461.18695
aF1655319461.188557
aF1655319461.199912
aF1655319461.2012
aF1655319461.205639
aF1655319461.209249
aF1655319461.213256
aF1655319461.216354
aF1655319461.220539
aF1655319461.222064
aF1655319461.223451
aF1655319461.229802
aF1655319461.232157
aF1655319461.234277
aF1655319461.236523
aF1655319461.241453
aF1655319461.244174
aF1655319461.248378
aF1655319461.249984
aF1655319461.251347
aF1655319461.252693
aF1655319461.264315
aF1655319461.265479
aF1655319461.26653
aF1655319461.267493
aF1655319461.268503
aF1655319461.269587
aF1655319461.270791
aF1655319461.27197
aF1655319461.273289
aF1655319461.274963
aF1655319461.276626
aF1655319461.277926
aF1655319461.279103
aF1655319461.280294
aF1655319461.281425
aF1655319461.282482
aF1655319461.283681
aF1655319461.28512
aF1655319461.287819
aF1655319461.294591
aF1655319461.303909
aF1655319461.306512
aF1655319461.309074
aF1655319461.313822
aF1655319461.315115
aF1655319461.316502
aF1655319461.32831
aF1655319461.329812
aF1655319461.331212
aF1655319461.332458
aF1655319461.333677
aF1655319461.336225
aF1655319461.337348
aF1655319461.338486
aF1655319461.340103
aF1655319461.34163
aF1655319461.342833
aF1655319461.343949
aF1655319461.345086
aF1655319461.346146
aF1655319461.347268
aF1655319461.34832
aF1655319461.349407
aF1655319461.350542
aF1655319461.356855
aF1655319461.358514
aF1655319461.362039
aF1655319461.364281
aF1655319461.396899
aF1655319461.401597
aF1655319461.404884
aF1655319461.407357
aF1655319461.408724
aF1655319461.410308
aF1655319461.411572
aF1655319461.413114
aF1655319461.41475
aF1655319461.416004
aF1655319461.417193
aF1655319461.41856
aF1655319461.419771
aF1655319461.421219
aF1655319461.422474
aF1655319461.423675
aF1655319461.425476
aF1655319461.42697
aF1655319461.428412
aF1655319461.429956
aF1655319461.431452
aF1655319461.433479
aF1655319461.435629
aF1655319461.437748
aF1655319461.439571
aF1655319461.441465
aF1655319461.443304
aF1655319461.444881
aF1655319461.446746
aF1655319461.448307
aF1655319461.44988
aF1655319461.451476
aF1655319461.452629
aF1655319461.453732
aF1655319461.45488
aF1655319461.45638
aF1655319461.457962
aF1655319461.459719
aF1655319461.461086
aF1655319461.462234
aF1655319461.46332
aF1655319461.464412
aF1655319461.46564
aF1655319461.466683
aF1655319461.467735
aF1655319461.46883
aF1655319461.469914
aF1655319461.471032
aF1655319461.472084
aF1655319461.473308
aF1655319461.474688
aF1655319461.475751
aF1655319461.476853
aF1655319461.478172
aF1655319461.479254
aF1655319461.480259
aF1655319461.481307
aF1655319461.482458
aF1655319461.483489
aF1655319461.484517
aF1655319461.485759
aF1655319461.486942
aF1655319461.488847
aF1655319461.490081
aF1655319461.492045
aF1655319461.493299
aF1655319461.494565
aF1655319461.512235
aF1655319461.513933
aF1655319461.525369
aF1655319461.526791
aF1655319461.527951
aF1655319461.529085
aF1655319461.530263
aF1655319461.531424
aF1655319461.532631
aF1655319461.533861
aF1655319461.535033
aF1655319461.536171
aF1655319461.537401
aF1655319461.539114
aF1655319461.541014
aF1655319461.542913
aF1655319461.544543
aF1655319461.545881
aF1655319461.547237
aF1655319461.548531
aF1655319461.550056
aF1655319461.551412
aF1655319461.552625
aF1655319461.55382
aF1655319461.555004
aF1655319461.556116
aF1655319461.557255
aF1655319461.558991
aF1655319461.561473
aF1655319461.562683
aF1655319461.563868
aF1655319461.565098
aF1655319461.566393
aF1655319461.567647
aF1655319461.569067
aF1655319461.580102
aF1655319461.582606
aF1655319461.584361
aF1655319461.586035
aF1655319461.587737
aF1655319461.589632
aF1655319461.591392
aF1655319461.592973
aF1655319461.601589
aF1655319461.608084
aF1655319461.614436
aF1655319461.617653
aF1655319461.619171
aF1655319461.620419
aF1655319461.621724
aF1655319461.623056
aF1655319461.624371
aF1655319461.625645
aF1655319461.62688
aF1655319461.628087
aF1655319461.629315
aF1655319461.630576
aF1655319461.631794
aF1655319461.633365
aF1655319461.634844
aF1655319461.636276
aF1655319461.638237
aF1655319461.640701
aF1655319461.642483
aF1655319461.64465
aF1655319461.646727
aF1655319461.653086
aF1655319461.65472
aF1655319461.656521
aF1655319461.658371
aF1655319461.659986
aF1655319461.661454
aF1655319461.662954
aF1655319461.664284
aF1655319461.668347
aF1655319461.669668
aF1655319461.670805
aF1655319461.671928
aF1655319461.673192
aF1655319461.674987
aF1655319461.67637
aF1655319461.677647
aF1655319461.67886
aF1655319461.679941
aF1655319461.681164
aF1655319461.6823
aF1655319461.683432
aF1655319461.684386
aF1655319461.685444
aF1655319461.686452
aF1655319461.687462
aF1655319461.688692
aF1655319461.689738
aF1655319461.690772
aF1655319461.691734
aF1655319461.692746
aF1655319461.693841
aF1655319461.694876
aF1655319461.695881
aF1655319461.697423
aF1655319461.699388
aF1655319461.701384
aF1655319461.703485
aF1655319461.706069
aF1655319461.709552
aF1655319461.713106
aF1655319461.715053
aF1655319461.716946
aF1655319461.718468
aF1655319461.720205
aF1655319461.721801
aF1655319461.723649
aF1655319461.725361
aF1655319461.727046
aF1655319461.72876
aF1655319461.731401
aF1655319461.733127
aF1655319461.734551
aF1655319461.735896
aF1655319461.737194
aF1655319461.738432
aF1655319461.739781
aF1655319461.74187
aF1655319461.744221
aF1655319461.745393
aF1655319461.746459
aF1655319461.747469
aF1655319461.748546
aF1655319461.749602
aF1655319461.750626
aF1655319461.75165
aF1655319461.752697
aF1655319461.753728
aF1655319461.754882
aF1655319461.756046
aF1655319461.757322
aF1655319461.75864
aF1655319461.760327
aF1655319461.761721
aF1655319461.762903
aF1655319461.764089
aF1655319461.765371
aF1655319461.766606
aF1655319461.767832
aF1655319461.769318
aF1655319461.771429
aF1655319461.773206
aF1655319461.775369
aF1655319461.777949
aF1655319461.780012
aF1655319461.78168
aF1655319461.783998
aF1655319461.797954
aF1655319461.799353
aF1655319461.80064
aF1655319461.801831
aF1655319461.802899
aF1655319461.803943
aF1655319461.805154
aF1655319461.806289
aF1655319461.807641
aF1655319461.809286
aF1655319461.810498
aF1655319461.81154
aF1655319461.812556
aF1655319461.81358
aF1655319461.814579
aF1655319461.815575
aF1655319461.81663
aF1655319461.817693
aF1655319461.818741
aF1655319461.819794
aF1655319461.821134
aF1655319461.822698
aF1655319461.82413
aF1655319461.826207
aF1655319461.827559
aF1655319461.828947
aF1655319461.830935
aF1655319461.831998
aF1655319461.833006
aF1655319461.834275
aF1655319461.835435
aF1655319461.836536
aF1655319461.83779
aF1655319461.838954
aF1655319461.84033
aF1655319461.844728
aF1655319461.84669
aF1655319461.848204
aF1655319461.862088
aF1655319461.863774
aF1655319461.86541
aF1655319461.866592
aF1655319461.867819
aF1655319461.869042
aF1655319461.870273
aF1655319461.871354
aF1655319461.872429
aF1655319461.873695
aF1655319461.874963
aF1655319461.876171
aF1655319461.877395
aF1655319461.879283
aF1655319461.880905
aF1655319461.882241
aF1655319461.883519
aF1655319461.884789
aF1655319461.885996
aF1655319461.88711
aF1655319461.888509
aF1655319461.889876
aF1655319461.891095
aF1655319461.892713
aF1655319461.893929
aF1655319461.895215
aF1655319461.896401
aF1655319461.897754
aF1655319461.898845
aF1655319461.899895
aF1655319461.901137
aF1655319461.902502
aF1655319461.903817
aF1655319461.905239
aF1655319461.906359
aF1655319461.907376
aF1655319461.908414
aF1655319461.909465
aF1655319461.910552
aF1655319461.911546
aF1655319461.912575
aF1655319461.913566
aF1655319461.914517
aF1655319461.915472
aF1655319461.916806
aF1655319461.918236
aF1655319461.919989
aF1655319461.921543
aF1655319461.9233
aF1655319461.926025
aF1655319461.928647
aF1655319461.930655
aF1655319461.932421
aF1655319461.934476
aF1655319461.93614
aF1655319461.937565
aF1655319461.939241
aF1655319461.941444
aF1655319461.943393
aF1655319461.945112
aF1655319461.946424
aF1655319461.947715
aF1655319461.949105
aF1655319461.9506
aF1655319461.951947
aF1655319461.953479
aF1655319461.955331
aF1655319461.957137
aF1655319461.958998
aF1655319461.960559
aF1655319461.961696
aF1655319461.962944
aF1655319461.964222
aF1655319461.965499
aF1655319461.966793
aF1655319461.968176
aF1655319461.969618
aF1655319461.970816
aF1655319461.971945
aF1655319461.973243
aF1655319461.974394
aF1655319461.975413
aF1655319461.976837
aF1655319461.978438
aF1655319461.981579
a(lp1
F51.52457809448242
aF51.52457809448242
aF51.52457809448242
aF51.52457809448242
aF51.52457809448242
aF51.52457809448242
aF51.52457809448242
aF51.52457809448242
aF51.52457809448242
aF51.52457809448242
aF51.52457809448242
aF51.52457809448242
aF51.56903839111328
aF51.56903839111328
aF51.56903839111328
aF51.56903839111328
aF51.56903839111328
aF51.56903839111328
aF51.56903839111328
aF51.56903839111328
aF51.56903839111328
aF51.56903839111328
aF51.56903839111328
aF51.56903839111328
aF51.56903839111328
aF51.56903839111328
aF51.56903839111328
aF51.56903839111328
aF51.555450439453125
aF51.555450439453125
aF51.555450439453125
aF51.555450439453125
aF51.555450439453125
aF51.555450439453125
aF51.555450439453125
aF51.555450439453125
aF51.555450439453125
aF51.555450439453125
aF51.555450439453125
aF51.555450439453125
aF51.555450439453125
aF51.555450439453125
aF51.555450439453125
aF51.555450439453125
aF51.555450439453125
aF51.555450439453125
aF51.555450439453125
aF51.555450439453125
aF51.555450439453125
aF51.555450439453125
aF51.555450439453125
aF51.555450439453125
aF51.555450439453125
aF51.555450439453125
aF51.555450439453125
aF51.555450439453125
aF51.555450439453125
aF51.555450439453125
aF51.555450439453125
aF51.555450439453125
aF51.555450439453125
aF51.555450439453125
aF51.555450439453125
aF51.58818817138672
aF51.58818817138672
aF51.58818817138672
aF51.58818817138672
aF51.58818817138672
aF51.58818817138672
aF51.58818817138672
aF51.58818817138672
aF51.58818817138672
aF51.58818817138672
aF51.58818817138672
aF51.58818817138672
aF51.58818817138672
aF51.58818817138672
aF51.58818817138672
aF51.51527786254883
aF51.51527786254883
aF51.51527786254883
aF51.51527786254883
aF51.51527786254883
aF51.51527786254883
aF51.51527786254883
aF51.51527786254883
aF51.51527786254883
aF51.51527786254883
aF51.51527786254883
aF51.51527786254883
aF51.51527786254883
aF51.51527786254883
aF51.51527786254883
aF51.51527786254883
aF51.51527786254883
aF51.51527786254883
aF51.51527786254883
aF51.51527786254883
aF51.51527786254883
aF51.51527786254883
aF51.51527786254883
aF51.51527786254883
aF51.51527786254883
aF51.51527786254883
aF51.51527786254883
aF51.51527786254883
aF51.51527786254883
aF51.51527786254883
aF51.51527786254883
aF51.51527786254883
aF51.51527786254883
aF51.533050537109375
aF51.533050537109375
aF51.533050537109375
aF51.533050537109375
aF51.533050537109375
aF51.533050537109375
aF51.533050537109375
aF51.533050537109375
aF51.533050537109375
aF51.533050537109375
aF51.533050537109375
aF51.533050537109375
aF51.533050537109375
aF51.533050537109375
aF51.533050537109375
aF51.533050537109375
aF51.533050537109375
aF51.533050537109375
aF51.533050537109375
aF51.533050537109375
aF51.533050537109375
aF51.533050537109375
aF51.532493591308594
aF51.532493591308594
aF51.532493591308594
aF51.532493591308594
aF51.532493591308594
aF51.532493591308594
aF51.532493591308594
aF51.532493591308594
aF51.532493591308594
aF51.532493591308594
aF51.532493591308594
aF51.532493591308594
aF51.532493591308594
aF51.532493591308594
aF51.532493591308594
aF51.532493591308594
aF51.532493591308594
aF51.532493591308594
aF51.532493591308594
aF51.532493591308594
aF51.532493591308594
aF51.532493591308594
aF51.532493591308594
aF51.532493591308594
aF51.532493591308594
aF51.532493591308594
aF51.532493591308594
aF51.5060920715332
aF51.5060920715332
aF51.5060920715332
aF51.5060920715332
aF51.5060920715332
aF51.5060920715332
aF51.5060920715332
aF51.5060920715332
aF51.5060920715332
aF51.5060920715332
aF51.5060920715332
aF51.5060920715332
aF51.5060920715332
aF51.5060920715332
aF51.50078582763672
aF51.50078582763672
aF51.50078582763672
aF51.50078582763672
aF51.50078582763672
aF51.50078582763672
aF51.50078582763672
aF51.50078582763672
aF51.50078582763672
aF51.50078582763672
aF51.50078582763672
aF51.50078582763672
aF51.50078582763672
aF51.50078582763672
aF51.50078582763672
aF51.50078582763672
aF51.50078582763672
aF51.504459381103516
aF51.504459381103516
aF51.504459381103516
aF51.504459381103516
aF51.504459381103516
aF51.504459381103516
aF51.504459381103516
aF51.504459381103516
aF51.504459381103516
aF51.504459381103516
aF51.504459381103516
aF51.504459381103516
aF51.504459381103516
aF51.504459381103516
aF51.504459381103516
aF51.504459381103516
aF51.504459381103516
aF51.504459381103516
aF51.504459381103516
aF51.504459381103516
aF51.504459381103516
aF51.504459381103516
aF51.504459381103516
aF51.504459381103516
aF51.504459381103516
aF51.504459381103516
aF51.504459381103516
aF51.504459381103516
aF51.51272201538086
aF51.51272201538086
aF51.51272201538086
aF51.51272201538086
aF51.51272201538086
aF51.51272201538086
aF51.51272201538086
aF51.51272201538086
aF51.51272201538086
aF51.51272201538086
aF51.51272201538086
aF51.51272201538086
aF51.51272201538086
aF51.51272201538086
aF51.51272201538086
aF51.51272201538086
aF51.51272201538086
aF51.51272201538086
aF51.51272201538086
aF51.49988555908203
aF51.49988555908203
aF51.49988555908203
aF51.49988555908203
aF51.49988555908203
aF51.49988555908203
aF51.49988555908203
aF51.49988555908203
aF51.49988555908203
aF51.49988555908203
aF51.49988555908203
aF51.49988555908203
aF51.49988555908203
aF51.49988555908203
aF51.49988555908203
aF51.49988555908203
aF51.49988555908203
aF51.49988555908203
aF51.49988555908203
aF51.49988555908203
aF51.49988555908203
aF51.49988555908203
aF51.49988555908203
aF51.49988555908203
aF51.49988555908203
aF51.49988555908203
aF51.49988555908203
aF51.49988555908203
aF51.49988555908203
aF51.49988555908203
aF51.49988555908203
aF51.49988555908203
aF51.49988555908203
aF51.49988555908203
aF51.49988555908203
aF51.49988555908203
aF51.49988555908203
aF51.49988555908203
aF51.49988555908203
aF51.49988555908203
aF51.49988555908203
aF51.49988555908203
aF51.49988555908203
aF51.49988555908203
aF51.49988555908203
aF51.49988555908203
aF51.49988555908203
aF51.49988555908203
aF51.49988555908203
aF51.49988555908203
aF51.49988555908203
aF51.49988555908203
aF51.49988555908203
aF51.49988555908203
aF51.54229736328125
aF51.54229736328125
aF51.54229736328125
aF51.54229736328125
aF51.54229736328125
aF51.54229736328125
aF51.54229736328125
aF51.54229736328125
aF51.54229736328125
aF51.54229736328125
aF51.54229736328125
aF51.54229736328125
aF51.54229736328125
aF51.54229736328125
aF51.54229736328125
aF51.54229736328125
aF51.54229736328125
aF51.54229736328125
aF51.54229736328125
aF51.54229736328125
aF51.54229736328125
aF51.54229736328125
aF51.54229736328125
aF51.54229736328125
aF51.54229736328125
aF51.54229736328125
aF51.54229736328125
aF51.54229736328125
aF51.54229736328125
aF51.54229736328125
aF51.54229736328125
aF51.53861618041992
aF51.53861618041992
aF51.53861618041992
aF51.53861618041992
aF51.53861618041992
aF51.53861618041992
aF51.53861618041992
aF51.53861618041992
aF51.53861618041992
aF51.53861618041992
aF51.53861618041992
aF51.53861618041992
aF51.53861618041992
aF51.53861618041992
aF51.53861618041992
aF51.53861618041992
aF51.53861618041992
aF51.53861618041992
aF51.53861618041992
aF51.53861618041992
aF51.53861618041992
aF51.53861618041992
aF51.53861618041992
aF51.53861618041992
aF51.495357513427734
aF51.495357513427734
aF51.495357513427734
aF51.495357513427734
aF51.495357513427734
aF51.495357513427734
aF51.495357513427734
aF51.495357513427734
aF51.495357513427734
aF51.495357513427734
aF51.495357513427734
aF51.495357513427734
aF51.495357513427734
aF51.495357513427734
aF51.495357513427734
aF51.495357513427734
aF51.495357513427734
aF51.495357513427734
aF51.495357513427734
aF51.495357513427734
aF51.495357513427734
aF51.495357513427734
aF51.495357513427734
aF51.495357513427734
aF51.495357513427734
aF51.495357513427734
aF51.495357513427734
aF51.495357513427734
aF51.495357513427734
aF51.495357513427734
aF51.495357513427734
aF51.495357513427734
aF51.495357513427734
aF51.495357513427734
aF51.495357513427734
aF51.495357513427734
aF51.47019958496094
aF51.47019958496094
aF51.47019958496094
aF51.47019958496094
aF51.47019958496094
aF51.47019958496094
aF51.47019958496094
aF51.47019958496094
aF51.47019958496094
aF51.47019958496094
aF51.47019958496094
aF51.47019958496094
aF51.47019958496094
aF51.4465217590332
aF51.4465217590332
aF51.4465217590332
aF51.4465217590332
aF51.4465217590332
aF51.4465217590332
aF51.4465217590332
aF51.4465217590332
aF51.4465217590332
aF51.4465217590332
aF51.4465217590332
aF51.4465217590332
aF51.4465217590332
aF51.4465217590332
aF51.4465217590332
aF51.4465217590332
aF51.475337982177734
aF51.475337982177734
aF51.475337982177734
aF51.475337982177734
aF51.475337982177734
aF51.475337982177734
aF51.475337982177734
aF51.475337982177734
aF51.475337982177734
aF51.475337982177734
aF51.475337982177734
aF51.475337982177734
aF51.475337982177734
aF51.475337982177734
aF51.475337982177734
aF51.475337982177734
aF51.475337982177734
aF51.4684944152832
aF51.4684944152832
aF51.4684944152832
aF51.4684944152832
aF51.4684944152832
aF51.4755859375
aF51.4755859375
aF51.4755859375
aF51.4755859375
aF51.4755859375
aF51.4755859375
aF51.4755859375
aF51.4755859375
aF51.4755859375
aF51.4755859375
aF51.4755859375
aF51.4755859375
aF51.4755859375
aF51.4755859375
aF51.4755859375
aF51.4755859375
aF51.448604583740234
aF51.448604583740234
aF51.448604583740234
aF51.448604583740234
aF51.448604583740234
aF51.448604583740234
aF51.448604583740234
aF51.448604583740234
aF51.448604583740234
aF51.448604583740234
aF51.448604583740234
aF51.448604583740234
aF51.448604583740234
aF51.448604583740234
aF51.448604583740234
aF51.448604583740234
aF51.448604583740234
aF51.448604583740234
aF51.448604583740234
aF51.448604583740234
aF51.44282913208008
aF51.44282913208008
aF51.44282913208008
aF51.44282913208008
aF51.44282913208008
aF51.44282913208008
aF51.44282913208008
aF51.44282913208008
aF51.44282913208008
aF51.44282913208008
aF51.44282913208008
aF51.44282913208008
aF51.44282913208008
aF51.44282913208008
aF51.44282913208008
aF51.44282913208008
aF51.44282913208008
aF51.44282913208008
aF51.44282913208008
aF51.44282913208008
aF51.44282913208008
aF51.44282913208008
aF51.44282913208008
aF51.44282913208008
aF51.44282913208008
aF51.44282913208008
aF51.44282913208008
aF51.44282913208008
aF51.44797134399414
aF51.44797134399414
aF51.44797134399414
aF51.44797134399414
aF51.44797134399414
aF51.44797134399414
aF51.44797134399414
aF51.44797134399414
aF51.44797134399414
aF51.44797134399414
aF51.44797134399414
aF51.44797134399414
aF51.44797134399414
aF51.44797134399414
aF51.44797134399414
aF51.44797134399414
aF51.44797134399414
aF51.44797134399414
aF51.44797134399414
aF51.44797134399414
aF51.44797134399414
aF51.44797134399414
aF51.44797134399414
aF51.44797134399414
aF51.44797134399414
aF51.44797134399414
aF51.44797134399414
aF51.44797134399414
aF51.44797134399414
aF51.44797134399414
aF51.44797134399414
aF51.4603157043457
aF51.4603157043457
aF51.4603157043457
aF51.4603157043457
aF51.48442077636719
aF51.48442077636719
aF51.48442077636719
aF51.48442077636719
aF51.48442077636719
aF51.48442077636719
aF51.48442077636719
aF51.48442077636719
aF51.48442077636719
aF51.48442077636719
aF51.48442077636719
aF51.48442077636719
aF51.48442077636719
aF51.48442077636719
aF51.48442077636719
aF51.506893157958984
aF51.506893157958984
aF51.506893157958984
aF51.506893157958984
aF51.506893157958984
aF51.506893157958984
aF51.506893157958984
aF51.506893157958984
aF51.506893157958984
aF51.506893157958984
aF51.506893157958984
aF51.506893157958984
aF51.506893157958984
aF51.506893157958984
aF51.506893157958984
aF51.506893157958984
aF51.50273132324219
aF51.50273132324219
aF51.50273132324219
aF51.50273132324219
aF51.50273132324219
aF51.50273132324219
aF51.50273132324219
aF51.50273132324219
aF51.50273132324219
aF51.50273132324219
aF51.50273132324219
aF51.50273132324219
aF51.50273132324219
aF51.50273132324219
aF51.50273132324219
aF51.50273132324219
aF51.50273132324219
aF51.50273132324219
aF51.50273132324219
aF51.50273132324219
aF51.50273132324219
aF51.50273132324219
aF51.50273132324219
aF51.49494171142578
aF51.49494171142578
aF51.49494171142578
aF51.49494171142578
aF51.49494171142578
aF51.49494171142578
aF51.49494171142578
aF51.49494171142578
aF51.49494171142578
aF51.49494171142578
aF51.49494171142578
aF51.49494171142578
aF51.49494171142578
aF51.49494171142578
aF51.49494171142578
aF51.49494171142578
aF51.49494171142578
aF51.49494171142578
aF51.45720672607422
aF51.45720672607422
aF51.45720672607422
aF51.45720672607422
aF51.45720672607422
aF51.45720672607422
aF51.45720672607422
aF51.45720672607422
aF51.45720672607422
aF51.45720672607422
aF51.45720672607422
aF51.45720672607422
aF51.45720672607422
aF51.45720672607422
aF51.45720672607422
aF51.45720672607422
aF51.45720672607422
aF51.45720672607422
aF51.45720672607422
aF51.45720672607422
aF51.45720672607422
aF51.45720672607422
aF51.45720672607422
aF51.45720672607422
aF51.45720672607422
aF51.45720672607422
aF51.45720672607422
aF51.45720672607422
aF51.45720672607422
aF51.451847076416016
aF51.451847076416016
aF51.451847076416016
aF51.451847076416016
aF51.451847076416016
aF51.451847076416016
aF51.451847076416016
aF51.451847076416016
aF51.451847076416016
aF51.451847076416016
aF51.451847076416016
aF51.451847076416016
aF51.451847076416016
aF51.451847076416016
aF51.451847076416016
aF51.451847076416016
aF51.43006896972656
aF51.43006896972656
aF51.43006896972656
aF51.43006896972656
aF51.43006896972656
aF51.43006896972656
aF51.43006896972656
aF51.43006896972656
aF51.43006896972656
aF51.43006896972656
aF51.43006896972656
aF51.43006896972656
aF51.43006896972656
aF51.43006896972656
aF51.43006896972656
aF51.43006896972656
aF51.43006896972656
aF51.43006896972656
aF51.43006896972656
aF51.43006896972656
aF51.43006896972656
aF51.43006896972656
aF51.43006896972656
aF51.43006896972656
aF51.43006896972656
aF51.43006896972656
aF51.4604377746582
aF51.4604377746582
aF51.4604377746582
aF51.4604377746582
aF51.4604377746582
aF51.4604377746582
aF51.4604377746582
aF51.4604377746582
aF51.4604377746582
aF51.4604377746582
aF51.4604377746582
aF51.4604377746582
aF51.4604377746582
aF51.4604377746582
aF51.4604377746582
aF51.4604377746582
aF51.4604377746582
aF51.4604377746582
aF51.4604377746582
aF51.4604377746582
aF51.4604377746582
aF51.4604377746582
aF51.4604377746582
aF51.4604377746582
aF51.4604377746582
aF51.4604377746582
aF51.4604377746582
aF51.45088195800781
aF51.45088195800781
aF51.45088195800781
aF51.45088195800781
aF51.45088195800781
aF51.45088195800781
aF51.45088195800781
aF51.45088195800781
aF51.45088195800781
aF51.45088195800781
aF51.45088195800781
aF51.45088195800781
aF51.45088195800781
aF51.45088195800781
aF51.45088195800781
aF51.45088195800781
aF51.45088195800781
aF51.45088195800781
aF51.45088195800781
aF51.45088195800781
aF51.43461227416992
aF51.43461227416992
aF51.43461227416992
aF51.43461227416992
aF51.43461227416992
aF51.43461227416992
aF51.43461227416992
aF51.43461227416992
aF51.43461227416992
aF51.43461227416992
aF51.43461227416992
aF51.43461227416992
aF51.43461227416992
aF51.43461227416992
aF51.43461227416992
aF51.43461227416992
aF51.43461227416992
aF51.43461227416992
aF51.43461227416992
aF51.43461227416992
aF51.43461227416992
aF51.43461227416992
aF51.43461227416992
aF51.43461227416992
aF51.43461227416992
aF51.43461227416992
aF51.43461227416992
aF51.43461227416992
aF51.43461227416992
aF51.43461227416992
aF51.43461227416992
aF51.435489654541016
aF51.435489654541016
aF51.435489654541016
aF51.435489654541016
aF51.435489654541016
aF51.435489654541016
aF51.435489654541016
aF51.435489654541016
aF51.435489654541016
aF51.435489654541016
aF51.435489654541016
aF51.435489654541016
aF51.435489654541016
aF51.435489654541016
aF51.435489654541016
aF51.435489654541016
aF51.435489654541016
aF51.435489654541016
aF51.435489654541016
aF51.435489654541016
aF51.435489654541016
aF51.435489654541016
aF51.435489654541016
aF51.435489654541016
aF51.435489654541016
aF51.435489654541016
aF51.435489654541016
aF51.435489654541016
aF51.435489654541016
aF51.435489654541016
aF51.417274475097656
aF51.417274475097656
aF51.417274475097656
aF51.417274475097656
aF51.417274475097656
aF51.417274475097656
aF51.417274475097656
aF51.417274475097656
aF51.417274475097656
aF51.417274475097656
aF51.417274475097656
aF51.417274475097656
aF51.417274475097656
aF51.417274475097656
aF51.417274475097656
aF51.417274475097656
aF51.417274475097656
aF51.417274475097656
aF51.417274475097656
aF51.417274475097656
aF51.417274475097656
aF51.417274475097656
aF51.429386138916016
aF51.429386138916016
aF51.429386138916016
aF51.429386138916016
aF51.429386138916016
aF51.429386138916016
aF51.429386138916016
aF51.429386138916016
aF51.429386138916016
aF51.429386138916016
aF51.429386138916016
aF51.429386138916016
aF51.429386138916016
aF51.429386138916016
aF51.429386138916016
aF51.429386138916016
aF51.429386138916016
aF51.429386138916016
aF51.429386138916016
aF51.429386138916016
aF51.429386138916016
aF51.429386138916016
aF51.429386138916016
aF51.429386138916016
aF51.429386138916016
aF51.429386138916016
aF51.429386138916016
aF51.429386138916016
aF51.429386138916016
aF51.429386138916016
aF51.429386138916016
aF51.429386138916016
aF51.429386138916016
aF51.422428131103516
aF51.422428131103516
aF51.422428131103516
aF51.422428131103516
aF51.422428131103516
aF51.422428131103516
aF51.422428131103516
aF51.422428131103516
aF51.422428131103516
aF51.422428131103516
aF51.422428131103516
aF51.422428131103516
aF51.422428131103516
aF51.422428131103516
aF51.422428131103516
aF51.422428131103516
aF51.422428131103516
aF51.422428131103516
aF51.422428131103516
aF51.422428131103516
aF51.422428131103516
aF51.422428131103516
aF51.422428131103516
aF51.422428131103516
aF51.422428131103516
aF51.45622634887695
aF51.45622634887695
aF51.45622634887695
aF51.45622634887695
aF51.45622634887695
aF51.45622634887695
aF51.45622634887695
aF51.45622634887695
aF51.45622634887695
aF51.45622634887695
aF51.45622634887695
aF51.45622634887695
aF51.45622634887695
aF51.45622634887695
aF51.45622634887695
aF51.45622634887695
aF51.45622634887695
aF51.45622634887695
aF51.45622634887695
aF51.45622634887695
aF51.45622634887695
aF51.45622634887695
aF51.45622634887695
aF51.45622634887695
aF51.45622634887695
aF51.45622634887695
aF51.45622634887695
aF51.46540069580078
aF51.46540069580078
aF51.46540069580078
aF51.46540069580078
aF51.46540069580078
aF51.46540069580078
aF51.46540069580078
aF51.46540069580078
aF51.46540069580078
aF51.46540069580078
aF51.46540069580078
aF51.46540069580078
aF51.46540069580078
aF51.46540069580078
aF51.46540069580078
aF51.46540069580078
aF51.46540069580078
aF51.46540069580078
aF51.46540069580078
aF51.46540069580078
aF51.46540069580078
aF51.46540069580078
aF51.46540069580078
aF51.46540069580078
aF51.46540069580078
aF51.46540069580078
aF51.46540069580078
aF51.46540069580078
aF51.46540069580078
aF51.46540069580078
aF51.46540069580078
aF51.46540069580078
aF51.46540069580078
aF51.46788024902344
aF51.46788024902344
aF51.46788024902344
aF51.46788024902344
aF51.46788024902344
aF51.46788024902344
aF51.46788024902344
aF51.46788024902344
aF51.46788024902344
aF51.46788024902344
aF51.46788024902344
aF51.46788024902344
aF51.46788024902344
aF51.46788024902344
aF51.46788024902344
aF51.46788024902344
aF51.46882629394531
aF51.46882629394531
aF51.46882629394531
aF51.46882629394531
aF51.46882629394531
aF51.46882629394531
aF51.46882629394531
aF51.46882629394531
aF51.46882629394531
aF51.46882629394531
aF51.46882629394531
aF51.46882629394531
aF51.46882629394531
aF51.46882629394531
aF51.46882629394531
aF51.46882629394531
aF51.46882629394531
aF51.46882629394531
aF51.46882629394531
aF51.46882629394531
aF51.46882629394531
aF51.46882629394531
aF51.46882629394531
aF51.46882629394531
aF51.46882629394531
aF51.46882629394531
aF51.46882629394531
aF51.46882629394531
aF51.46882629394531
aF51.46882629394531
aF51.46882629394531
aF51.46882629394531
aF51.46882629394531
aF50.944026947021484
aF50.944026947021484
aF50.944026947021484
aF50.944026947021484
aF50.944026947021484
aF50.944026947021484
aF50.944026947021484
aF50.944026947021484
aF50.944026947021484
aF50.944026947021484
aF50.944026947021484
aF50.944026947021484
aF50.944026947021484
aF50.944026947021484
aF50.944026947021484
aF50.944026947021484
aF50.944026947021484
aF50.944026947021484
aF50.944026947021484
aF50.944026947021484
aF50.944026947021484
aF50.944026947021484
aF50.944026947021484
aF50.944026947021484
aF50.944026947021484
aF50.944026947021484
aF50.944026947021484
aF50.944026947021484
aF50.944026947021484
aF50.944026947021484
aF50.944026947021484
aF50.944026947021484
aF50.944026947021484
aF50.944026947021484
aF50.944026947021484
aF50.944026947021484
aF50.944026947021484
aF50.944026947021484
aF50.944026947021484
aF50.944026947021484
aF50.785064697265625
aF50.785064697265625
aF50.785064697265625
aF50.785064697265625
aF50.785064697265625
aF50.785064697265625
aF50.785064697265625
aF50.785064697265625
aF50.785064697265625
aF50.785064697265625
aF50.785064697265625
aF50.785064697265625
aF50.785064697265625
aF50.785064697265625
aF50.785064697265625
aF50.785064697265625
aF50.785064697265625
aF50.785064697265625
aF50.785064697265625
aF50.785064697265625
aF50.785064697265625
aF50.785064697265625
aF50.785064697265625
aF50.785064697265625
aF50.785064697265625
aF50.785064697265625
aF50.785064697265625
aF50.60245895385742
aF50.60245895385742
aF50.60245895385742
aF50.60245895385742
aF50.60245895385742
aF50.60245895385742
aF50.60245895385742
aF50.60245895385742
aF50.60245895385742
aF50.60245895385742
aF50.60245895385742
aF50.60245895385742
aF50.60245895385742
aF50.60245895385742
aF50.13028335571289
aF50.13028335571289
aF50.13028335571289
aF50.13028335571289
aF50.13028335571289
aF50.13028335571289
aF50.13028335571289
aF50.13028335571289
aF50.13028335571289
aF50.13028335571289
aF50.13028335571289
aF50.13028335571289
aF50.13028335571289
aF50.13028335571289
aF50.13028335571289
aF50.13028335571289
aF50.13028335571289
aF50.13028335571289
aF50.13028335571289
aF50.13028335571289
aF50.13028335571289
aF50.13028335571289
aF50.13028335571289
aF50.13028335571289
aF50.13028335571289
aF50.13028335571289
aF50.13028335571289
aF50.13028335571289
aF50.13028335571289
aF50.13028335571289
aF50.13028335571289
aF50.13028335571289
aF50.13028335571289
aF50.13028335571289
aF50.13028335571289
aF50.13028335571289
aF50.13028335571289
aF76.25353509226153
aF53.490631866455075
aF55.25725688060878
aF53.40964202880859
aF53.40964202880859
aF58.45121513635921
aF53.37118301391602
aF53.37118301391602
aF53.37118301391602
aF53.37118301391602
aF53.37118301391602
aF53.37118301391602
aF53.37118301391602
aF53.37118301391602
aF53.37118301391602
aF53.37118301391602
aF53.37118301391602
aF53.37118301391602
aF53.37118301391602
aF53.37118301391602
aF53.37118301391602
aF53.37118301391602
aF53.37118301391602
aF53.37118301391602
aF88.9087159713059
aF53.2907299041748
aF53.2907299041748
aF53.2907299041748
aF53.2907299041748
aF53.2907299041748
aF53.2907299041748
aF53.2907299041748
aF53.2907299041748
aF53.2907299041748
aF53.2907299041748
aF53.2907299041748
aF53.2907299041748
aF53.2907299041748
aF53.2907299041748
aF53.2907299041748
aF53.2907299041748
aF73.85263418128253
aF53.232953262329104
aF53.232953262329104
aF53.232953262329104
aF53.232953262329104
aF53.232953262329104
aF53.232953262329104
aF53.232953262329104
aF53.232953262329104
aF53.232953262329104
aF53.232953262329104
aF53.232953262329104
aF53.232953262329104
aF53.232953262329104
aF53.232953262329104
aF53.232953262329104
aF53.232953262329104
aF53.232953262329104
aF53.232953262329104
aF53.232953262329104
aF53.232953262329104
aF53.232953262329104
aF79.88575638617775
aF53.17047882080078
aF53.17047882080078
aF53.17047882080078
aF53.17047882080078
aF53.17047882080078
aF53.17047882080078
aF53.17047882080078
aF53.17047882080078
aF53.17047882080078
aF53.17047882080078
aF53.17047882080078
aF53.17047882080078
aF53.17047882080078
aF53.17047882080078
aF53.17047882080078
aF53.17047882080078
aF53.17047882080078
aF53.17047882080078
aF53.17047882080078
aF53.17047882080078
aF53.17047882080078
aF53.17047882080078
aF53.17047882080078
aF53.17047882080078
aF53.17047882080078
aF53.17047882080078
aF53.17047882080078
aF53.17047882080078
aF53.17047882080078
aF53.17047882080078
aF53.17047882080078
aF70.93270119432177
aF53.09749755859375
aF53.09749755859375
aF53.09749755859375
aF53.09749755859375
aF53.09749755859375
aF53.09749755859375
aF53.09749755859375
aF53.09749755859375
aF53.09749755859375
aF53.09749755859375
aF53.09749755859375
aF53.09749755859375
aF53.09749755859375
aF53.09749755859375
aF53.09749755859375
aF53.09749755859375
aF53.09749755859375
aF53.09749755859375
aF53.09749755859375
aF53.09749755859375
aF53.09749755859375
aF53.09749755859375
aF53.09749755859375
aF53.09749755859375
aF53.09749755859375
aF88.64420155056274
aF53.03757171630859
aF53.03757171630859
aF53.03757171630859
aF53.03757171630859
aF53.03757171630859
aF53.03757171630859
aF53.03757171630859
aF53.03757171630859
aF53.03757171630859
aF53.03757171630859
aF53.03757171630859
aF53.03757171630859
aF53.03757171630859
aF53.03757171630859
aF53.03757171630859
aF53.03757171630859
aF79.10280031480681
aF52.98640747070313
aF52.98640747070313
aF52.98640747070313
aF52.98640747070313
aF52.98640747070313
aF52.98640747070313
aF52.98640747070313
aF52.98640747070313
aF52.98640747070313
aF52.98640747070313
aF52.98640747070313
aF52.98640747070313
aF52.98640747070313
aF86.23192901921131
aF52.92039680480957
aF52.92039680480957
aF52.92039680480957
aF52.92039680480957
aF52.92039680480957
aF52.92039680480957
aF52.92039680480957
aF52.92039680480957
aF52.92039680480957
aF52.92039680480957
aF52.92039680480957
aF52.92039680480957
aF52.92039680480957
aF52.92039680480957
aF52.92039680480957
aF52.92039680480957
aF52.92039680480957
aF52.92039680480957
aF52.92039680480957
aF52.92039680480957
aF96.01612796504322
aF52.819054794311526
aF52.819054794311526
aF52.819054794311526
aF52.819054794311526
aF52.819054794311526
aF52.819054794311526
aF52.819054794311526
aF52.819054794311526
aF52.819054794311526
aF52.819054794311526
aF52.819054794311526
aF52.819054794311526
aF52.819054794311526
aF52.819054794311526
aF63.623366846477055
aF52.75372505187988
aF52.75372505187988
aF52.75372505187988
aF52.75372505187988
aF52.75372505187988
aF52.75372505187988
aF52.75372505187988
aF52.75372505187988
aF52.75372505187988
aF52.75372505187988
aF52.75372505187988
aF65.4944551925478
aF52.72295875549317
aF52.72295875549317
aF52.72295875549317
aF52.72295875549317
aF52.72295875549317
aF52.72295875549317
aF52.72295875549317
aF52.72295875549317
aF52.72295875549317
aF52.72295875549317
aF52.72295875549317
aF52.72295875549317
aF52.72295875549317
aF52.72295875549317
aF52.72295875549317
aF52.72295875549317
aF52.72295875549317
aF52.72295875549317
aF52.72295875549317
aF52.72295875549317
aF69.2432276083471
aF52.65580711364746
aF52.65580711364746
aF52.65580711364746
aF52.65580711364746
aF52.65580711364746
aF52.65580711364746
aF52.65580711364746
aF52.65580711364746
aF52.65580711364746
aF71.52835311785705
aF52.61609153747558
aF52.61609153747558
aF52.61609153747558
aF52.61609153747558
aF52.61609153747558
aF52.61609153747558
aF52.61609153747558
aF52.61609153747558
aF52.61609153747558
aF52.61609153747558
aF52.61609153747558
aF52.61609153747558
aF52.61609153747558
aF52.61609153747558
aF52.61609153747558
aF52.61609153747558
aF52.61609153747558
aF52.61609153747558
aF52.61609153747558
aF52.61609153747558
aF58.64897228056088
aF52.57327575683594
aF52.57327575683594
aF52.57327575683594
aF52.57327575683594
aF52.57327575683594
aF52.57327575683594
aF52.57327575683594
aF52.57327575683594
aF52.57327575683594
aF81.1972620277152
aF52.51445770263672
aF52.51445770263672
aF52.51445770263672
aF52.51445770263672
aF52.51445770263672
aF52.51445770263672
aF52.51445770263672
aF52.51445770263672
aF52.51445770263672
aF52.51445770263672
aF52.51445770263672
aF52.51445770263672
aF52.51445770263672
aF52.51445770263672
aF52.51445770263672
aF52.51445770263672
aF52.51445770263672
aF52.51445770263672
aF52.51445770263672
aF52.51445770263672
aF52.51445770263672
aF52.51445770263672
aF52.51445770263672
aF52.51445770263672
aF52.51445770263672
aF52.51445770263672
aF52.51445770263672
aF73.56558069801528
aF52.478145599365234
aF52.478145599365234
aF52.478145599365234
aF52.478145599365234
aF52.478145599365234
aF52.478145599365234
aF52.478145599365234
aF52.478145599365234
aF52.478145599365234
aF52.478145599365234
aF52.478145599365234
aF52.478145599365234
aF52.478145599365234
aF52.478145599365234
aF52.478145599365234
aF52.478145599365234
aF52.478145599365234
aF52.478145599365234
aF52.478145599365234
aF52.478145599365234
aF52.478145599365234
aF52.478145599365234
aF52.478145599365234
aF52.478145599365234
aF52.478145599365234
aF52.478145599365234
aF52.478145599365234
aF52.478145599365234
aF68.41453664180302
aF52.43745155334473
aF52.43745155334473
aF52.43745155334473
aF52.43745155334473
aF52.43745155334473
aF52.43745155334473
aF52.43745155334473
aF52.43745155334473
aF52.43745155334473
aF52.43745155334473
aF52.43745155334473
aF52.43745155334473
aF52.43745155334473
aF52.43745155334473
aF52.43745155334473
aF52.43745155334473
aF52.43745155334473
aF52.43745155334473
aF66.39918851989593
aF52.40544242858887
aF52.40544242858887
aF52.40544242858887
aF52.40544242858887
aF52.40544242858887
aF52.40544242858887
aF52.40544242858887
aF52.40544242858887
aF52.40544242858887
aF52.40544242858887
aF52.40544242858887
aF52.40544242858887
aF52.40544242858887
aF52.40544242858887
aF52.40544242858887
aF52.40544242858887
aF52.40544242858887
aF52.40544242858887
aF52.40544242858887
aF52.40544242858887
aF52.40544242858887
aF52.40544242858887
aF52.40544242858887
aF54.213191267281985
aF52.387657165527344
aF52.387657165527344
aF52.387657165527344
aF52.387657165527344
aF52.387657165527344
aF52.387657165527344
aF52.387657165527344
aF52.387657165527344
aF52.387657165527344
aF52.387657165527344
aF52.387657165527344
aF52.387657165527344
aF52.387657165527344
aF52.387657165527344
aF52.387657165527344
aF52.387657165527344
aF52.387657165527344
aF52.387657165527344
aF34.40555884708591
aF52.43585052490234
aF52.43585052490234
aF52.43585052490234
aF52.43585052490234
aF52.43585052490234
aF52.43585052490234
aF52.43585052490234
aF52.43585052490234
aF52.43585052490234
aF52.43585052490234
aF52.43585052490234
aF52.43585052490234
aF52.43585052490234
aF52.43585052490234
aF52.43585052490234
aF52.43585052490234
aF52.43585052490234
aF52.43585052490234
aF52.43585052490234
aF52.43585052490234
aF52.43585052490234
aF52.43585052490234
aF52.43585052490234
aF52.43585052490234
aF52.43585052490234
aF7.699794902941392
aF52.50358009338379
aF52.50358009338379
aF52.50358009338379
aF52.50358009338379
aF52.50358009338379
aF52.50358009338379
aF52.50358009338379
aF52.50358009338379
aF52.50358009338379
aF52.50358009338379
aF52.50358009338379
aF52.50358009338379
aF52.50358009338379
aF52.50358009338379
aF52.50358009338379
aF52.50358009338379
aF52.50358009338379
aF52.50358009338379
aF52.50358009338379
aF52.50358009338379
aF52.50358009338379
aF52.50358009338379
aF52.50358009338379
aF52.50358009338379
aF52.50358009338379
aF52.50358009338379
aF52.50358009338379
aF52.50358009338379
aF52.50358009338379
aF52.50358009338379
aF52.50358009338379
aF52.50358009338379
aF52.50358009338379
aF52.50358009338379
aF52.50358009338379
aF52.50358009338379
aF52.50358009338379
aF52.50358009338379
aF52.50358009338379
aF52.50358009338379
aF52.50358009338379
aF52.50358009338379
aF52.50358009338379
aF52.50358009338379
aF52.50358009338379
aF52.50358009338379
aF52.50358009338379
aF52.50358009338379
aF52.50358009338379
aF3.744686761465992
aF52.59018898010254
aF52.59018898010254
aF52.59018898010254
aF52.59018898010254
aF52.59018898010254
aF52.59018898010254
aF52.59018898010254
aF52.59018898010254
aF52.59018898010254
aF52.59018898010254
aF52.59018898010254
aF52.59018898010254
aF52.59018898010254
aF52.59018898010254
aF52.59018898010254
aF52.59018898010254
aF52.59018898010254
aF52.59018898010254
aF52.59018898010254
aF52.59018898010254
aF52.59018898010254
aF52.59018898010254
aF52.59018898010254
aF52.59018898010254
aF52.59018898010254
aF52.59018898010254
aF52.59018898010254
aF52.59018898010254
aF52.59018898010254
aF52.59018898010254
aF52.59018898010254
aF52.59018898010254
aF52.59018898010254
aF52.59018898010254
aF52.59018898010254
aF52.59018898010254
aF52.59018898010254
aF52.59018898010254
aF52.59018898010254
aF52.59018898010254
aF52.59018898010254
aF52.59018898010254
aF52.59018898010254
aF52.59018898010254
aF52.59018898010254
aF52.59018898010254
aF52.59018898010254
aF52.59018898010254
aF52.59018898010254
aF52.59018898010254
aF52.59018898010254
aF29.943538456912492
aF52.64761085510254
aF52.64761085510254
aF52.64761085510254
aF52.64761085510254
aF52.64761085510254
aF52.64761085510254
aF52.64761085510254
aF52.64761085510254
aF52.64761085510254
aF52.64761085510254
aF52.64761085510254
aF52.64761085510254
aF52.64761085510254
aF52.64761085510254
aF52.64761085510254
aF52.64761085510254
aF52.64761085510254
aF52.64761085510254
aF52.64761085510254
aF52.64761085510254
aF52.64761085510254
aF52.64761085510254
aF52.64761085510254
aF52.64761085510254
aF52.64761085510254
aF52.64761085510254
aF52.64761085510254
aF52.64761085510254
aF52.64761085510254
aF38.903232678076066
aF52.67580909729004
aF52.67580909729004
aF52.67580909729004
aF52.67580909729004
aF52.67580909729004
aF52.67580909729004
aF52.67580909729004
aF52.67580909729004
aF52.67580909729004
aF52.67580909729004
aF52.67580909729004
aF52.67580909729004
aF52.67580909729004
aF52.67580909729004
aF52.67580909729004
aF52.67580909729004
aF52.67580909729004
aF52.67580909729004
aF52.67580909729004
aF52.67580909729004
aF52.67580909729004
aF52.67580909729004
aF52.67580909729004
aF52.67580909729004
aF52.67580909729004
aF52.67580909729004
aF52.67580909729004
aF52.67580909729004
aF42.20907799167761
aF52.696448516845706
aF52.696448516845706
aF52.696448516845706
aF52.696448516845706
aF52.696448516845706
aF52.696448516845706
aF52.696448516845706
aF52.696448516845706
aF52.696448516845706
aF52.696448516845706
aF52.696448516845706
aF52.696448516845706
aF52.696448516845706
aF52.696448516845706
aF52.696448516845706
aF52.696448516845706
aF52.696448516845706
aF52.696448516845706
aF52.696448516845706
aF52.696448516845706
aF52.696448516845706
aF52.696448516845706
aF52.696448516845706
aF52.696448516845706
atp2
.
